; Function Attrs: mustprogress uwtable
define internal void @_ZL17OnChangeThresholdiPv(i32 %0, ptr nocapture readnone %1) #4 personality ptr @__gxx_personality_v0 {
  %3 = alloca %"class.cv::_InputArray", align 8
  %4 = alloca %"class.cv::_OutputArray", align 8
  %5 = alloca %"class.cv::_InputArray", align 8
  %6 = alloca %"class.cv::_OutputArray", align 8
  %7 = alloca %"class.std::__cxx11::basic_string", align 8
  %8 = alloca %"class.std::allocator", align 1
  %9 = alloca %"class.cv::_InputArray", align 8
  %10 = getelementptr inbounds i8, ptr %3, i64 16
  store i32 0, ptr %10, align 8
  %11 = getelementptr inbounds i8, ptr %3, i64 20
  store i32 0, ptr %11, align 4
  store i32 16842752, ptr %3, align 8
  %12 = getelementptr inbounds i8, ptr %3, i64 8
  store ptr @src, ptr %12, align 8
  %13 = getelementptr inbounds i8, ptr %4, i64 8
  %14 = getelementptr inbounds i8, ptr %4, i64 16
  store i64 0, ptr %14, align 8
  store i32 33619968, ptr %4, align 8
  store ptr @binaryImage, ptr %13, align 8
  %15 = load i32, ptr @nThreshold, align 4
  %16 = sitofp i32 %15 to double
  %17 = call noundef double @_ZN2cv9thresholdERKNS_11_InputArrayERKNS_12_OutputArrayEddi(ptr noundef nonnull align 8 dereferenceable(24) %3, ptr noundef nonnull align 8 dereferenceable(24) %4, double noundef %16, double noundef 2.550000e+02, i32 noundef 0)
  %18 = getelementptr inbounds i8, ptr %5, i64 16
  store i32 0, ptr %18, align 8
  %19 = getelementptr inbounds i8, ptr %5, i64 20
  store i32 0, ptr %19, align 4
  store i32 16842752, ptr %5, align 8
  %20 = getelementptr inbounds i8, ptr %5, i64 8
  store ptr @src, ptr %20, align 8
  %21 = getelementptr inbounds i8, ptr %6, i64 8
  %22 = getelementptr inbounds i8, ptr %6, i64 16
  store i64 0, ptr %22, align 8
  store i32 33619968, ptr %6, align 8
  store ptr @binaryRLE, ptr %21, align 8
  %23 = load i32, ptr @nThreshold, align 4
  %24 = sitofp i32 %23 to double
  call void @_ZN2cv8ximgproc2rl9thresholdERKNS_11_InputArrayERKNS_12_OutputArrayEdi(ptr noundef nonnull align 8 dereferenceable(24) %5, ptr noundef nonnull align 8 dereferenceable(24) %6, double noundef %24, i32 noundef 0)
  call void @_ZNSaIcEC1Ev(ptr noundef nonnull align 1 dereferenceable(1) %8) #10
  invoke void @_ZNSt7__cxx1112basic_stringIcSt11char_traitsIcESaIcEEC1EPKcRKS3_(ptr noundef nonnull align 8 dereferenceable(32) %7, ptr noundef nonnull @.str.13, ptr noundef nonnull align 1 dereferenceable(1) %8)
          to label %25 unwind label %30

25:                                               ; preds = %2
  %26 = getelementptr inbounds i8, ptr %9, i64 16
  store i32 0, ptr %26, align 8
  %27 = getelementptr inbounds i8, ptr %9, i64 20
  store i32 0, ptr %27, align 4
  store i32 16842752, ptr %9, align 8
  %28 = getelementptr inbounds i8, ptr %9, i64 8
  store ptr @binaryImage, ptr %28, align 8
  invoke void @_ZN2cv6imshowERKNSt7__cxx1112basic_stringIcSt11char_traitsIcESaIcEEERKNS_11_InputArrayE(ptr noundef nonnull align 8 dereferenceable(32) %7, ptr noundef nonnull align 8 dereferenceable(24) %9)
          to label %29 unwind label %32

29:                                               ; preds = %25
  call void @_ZNSt7__cxx1112basic_stringIcSt11char_traitsIcESaIcEED1Ev(ptr noundef nonnull align 8 dereferenceable(32) %7) #10
  call void @_ZNSaIcED1Ev(ptr noundef nonnull align 1 dereferenceable(1) %8) #10
  ret void

30:                                               ; preds = %2
  %31 = landingpad { ptr, i32 }
          cleanup
  br label %34

32:                                               ; preds = %25
  %33 = landingpad { ptr, i32 }
          cleanup
  call void @_ZNSt7__cxx1112basic_stringIcSt11char_traitsIcESaIcEED1Ev(ptr noundef nonnull align 8 dereferenceable(32) %7) #10
  br label %34

34:                                               ; preds = %32, %30
  %.pn9.pn = phi { ptr, i32 } [ %33, %32 ], [ %31, %30 ]
  call void @_ZNSaIcED1Ev(ptr noundef nonnull align 1 dereferenceable(1) %8) #10
  resume { ptr, i32 } %.pn9.pn
}